target datalayout = "e-m:e-p270:32:32-p271:32:32-p272:64:64-i64:64-i128:128-f80:128-n8:16:32:64-S128"
target triple = "x86_64-pc-linux-gnu"

%struct.lua_TValue = type { %union.Value, [1 x i32], i32 }
%union.Value = type { ptr }
%struct.lua_State = type { i8, i8, i8, i8, i8, i8, i8, ptr, ptr, ptr, ptr, ptr, ptr, ptr, ptr, i32, i32, i16, i16, i32, ptr, ptr, ptr, ptr, ptr }
%struct.CallInfo = type { ptr, ptr, ptr, ptr, i32, i32 }
%struct.Closure = type { i8, i8, i8, i8, i8, i8, i8, ptr, ptr, %union.anon.0 }
%union.anon.0 = type { %struct.anon }
%struct.anon = type { ptr, ptr, ptr, [1 x %struct.lua_TValue] }

; Function Attrs: mustprogress noinline uwtable
define hidden void @_Z11luaV_callTMP9lua_Stateii(ptr noundef %0, i32 noundef %1, i32 noundef %2) #10 {
  %4 = alloca ptr, align 8
  %5 = alloca i32, align 4
  %6 = alloca i32, align 4
  %7 = alloca ptr, align 8
  %8 = alloca ptr, align 8
  %9 = alloca ptr, align 8
  %10 = alloca ptr, align 8
  %11 = alloca i32, align 4
  %12 = alloca ptr, align 8
  %13 = alloca ptr, align 8
  %14 = alloca ptr, align 8
  store ptr %0, ptr %4, align 8, !tbaa !15
  store i32 %1, ptr %5, align 4, !tbaa !19
  store i32 %2, ptr %6, align 4, !tbaa !19
  %15 = load ptr, ptr %4, align 8, !tbaa !15
  %16 = getelementptr inbounds nuw %struct.lua_State, ptr %15, i32 0, i32 17
  %17 = load i16, ptr %16, align 8, !tbaa !65
  %18 = add i16 %17, 1
  store i16 %18, ptr %16, align 8, !tbaa !65
  %19 = load ptr, ptr %4, align 8, !tbaa !15
  %20 = getelementptr inbounds nuw %struct.lua_State, ptr %19, i32 0, i32 17
  %21 = load i16, ptr %20, align 8, !tbaa !65
  %22 = zext i16 %21 to i32
  %23 = icmp sge i32 %22, 200
  br i1 %23, label %24, label %26

24:                                               ; preds = %3
  %25 = load ptr, ptr %4, align 8, !tbaa !15
  call void @_Z16luaD_checkCstackP9lua_State(ptr noundef %25)
  br label %26

26:                                               ; preds = %24, %3
  %27 = load ptr, ptr %4, align 8, !tbaa !15
  %28 = getelementptr inbounds nuw %struct.lua_State, ptr %27, i32 0, i32 11
  %29 = load ptr, ptr %28, align 8, !tbaa !45
  %30 = load ptr, ptr %4, align 8, !tbaa !15
  %31 = getelementptr inbounds nuw %struct.lua_State, ptr %30, i32 0, i32 7
  %32 = load ptr, ptr %31, align 8, !tbaa !44
  %33 = ptrtoint ptr %29 to i64
  %34 = ptrtoint ptr %32 to i64
  %35 = sub i64 %33, %34
  %36 = icmp sle i64 %35, 320
  br i1 %36, label %37, label %39

37:                                               ; preds = %26
  %38 = load ptr, ptr %4, align 8, !tbaa !15
  call void @_Z14luaD_growstackP9lua_Statei(ptr noundef %38, i32 noundef 20)
  br label %40

39:                                               ; preds = %26
  br label %40

40:                                               ; preds = %39, %37
  call void @llvm.lifetime.start.p0(i64 8, ptr %7) #11
  %41 = load ptr, ptr %4, align 8, !tbaa !15
  %42 = getelementptr inbounds nuw %struct.lua_State, ptr %41, i32 0, i32 7
  %43 = load ptr, ptr %42, align 8, !tbaa !44
  store ptr %43, ptr %7, align 8, !tbaa !4
  call void @llvm.lifetime.start.p0(i64 8, ptr %8) #11
  %44 = load ptr, ptr %7, align 8, !tbaa !4
  %45 = load i32, ptr %5, align 4, !tbaa !19
  %46 = sext i32 %45 to i64
  %47 = sub i64 0, %46
  %48 = getelementptr inbounds %struct.lua_TValue, ptr %44, i64 %47
  %49 = getelementptr inbounds %struct.lua_TValue, ptr %48, i64 -1
  store ptr %49, ptr %8, align 8, !tbaa !4
  call void @llvm.lifetime.start.p0(i64 8, ptr %9) #11
  %50 = load ptr, ptr %4, align 8, !tbaa !15
  %51 = getelementptr inbounds nuw %struct.lua_State, ptr %50, i32 0, i32 10
  %52 = load ptr, ptr %51, align 8, !tbaa !66
  %53 = load ptr, ptr %4, align 8, !tbaa !15
  %54 = getelementptr inbounds nuw %struct.lua_State, ptr %53, i32 0, i32 13
  %55 = load ptr, ptr %54, align 8, !tbaa !67
  %56 = icmp eq ptr %52, %55
  br i1 %56, label %57, label %60

57:                                               ; preds = %40
  %58 = load ptr, ptr %4, align 8, !tbaa !15
  %59 = call noundef ptr @_Z11luaD_growCIP9lua_State(ptr noundef %58)
  br label %65

60:                                               ; preds = %40
  %61 = load ptr, ptr %4, align 8, !tbaa !15
  %62 = getelementptr inbounds nuw %struct.lua_State, ptr %61, i32 0, i32 10
  %63 = load ptr, ptr %62, align 8, !tbaa !66
  %64 = getelementptr inbounds nuw %struct.CallInfo, ptr %63, i32 1
  store ptr %64, ptr %62, align 8, !tbaa !66
  br label %65

65:                                               ; preds = %60, %57
  %66 = phi ptr [ %59, %57 ], [ %64, %60 ]
  store ptr %66, ptr %9, align 8, !tbaa !68
  %67 = load ptr, ptr %8, align 8, !tbaa !4
  %68 = load ptr, ptr %9, align 8, !tbaa !68
  %69 = getelementptr inbounds nuw %struct.CallInfo, ptr %68, i32 0, i32 1
  store ptr %67, ptr %69, align 8, !tbaa !69
  %70 = load ptr, ptr %8, align 8, !tbaa !4
  %71 = getelementptr inbounds %struct.lua_TValue, ptr %70, i64 1
  %72 = load ptr, ptr %9, align 8, !tbaa !68
  %73 = getelementptr inbounds nuw %struct.CallInfo, ptr %72, i32 0, i32 0
  store ptr %71, ptr %73, align 8, !tbaa !72
  %74 = load ptr, ptr %7, align 8, !tbaa !4
  %75 = getelementptr inbounds %struct.lua_TValue, ptr %74, i64 20
  %76 = load ptr, ptr %9, align 8, !tbaa !68
  %77 = getelementptr inbounds nuw %struct.CallInfo, ptr %76, i32 0, i32 2
  store ptr %75, ptr %77, align 8, !tbaa !73
  %78 = load ptr, ptr %9, align 8, !tbaa !68
  %79 = getelementptr inbounds nuw %struct.CallInfo, ptr %78, i32 0, i32 3
  store ptr null, ptr %79, align 8, !tbaa !74
  %80 = load ptr, ptr %9, align 8, !tbaa !68
  %81 = getelementptr inbounds nuw %struct.CallInfo, ptr %80, i32 0, i32 5
  store i32 0, ptr %81, align 4, !tbaa !75
  %82 = load i32, ptr %6, align 4, !tbaa !19
  %83 = icmp sge i32 %82, 0
  %84 = zext i1 %83 to i32
  %85 = load ptr, ptr %9, align 8, !tbaa !68
  %86 = getelementptr inbounds nuw %struct.CallInfo, ptr %85, i32 0, i32 4
  store i32 %84, ptr %86, align 8, !tbaa !76
  %87 = load ptr, ptr %8, align 8, !tbaa !4
  %88 = getelementptr inbounds %struct.lua_TValue, ptr %87, i64 1
  %89 = load ptr, ptr %4, align 8, !tbaa !15
  %90 = getelementptr inbounds nuw %struct.lua_State, ptr %89, i32 0, i32 8
  store ptr %88, ptr %90, align 8, !tbaa !61
  call void @llvm.lifetime.start.p0(i64 8, ptr %10) #11
  %91 = load ptr, ptr %8, align 8, !tbaa !4
  %92 = getelementptr inbounds nuw %struct.lua_TValue, ptr %91, i32 0, i32 0
  %93 = load ptr, ptr %92, align 8, !tbaa !12
  %94 = getelementptr inbounds nuw %struct.Closure, ptr %93, i32 0, i32 9
  %95 = getelementptr inbounds nuw %struct.anon, ptr %94, i32 0, i32 0
  %96 = load ptr, ptr %95, align 8, !tbaa !12
  store ptr %96, ptr %10, align 8, !tbaa !77
  call void @llvm.lifetime.start.p0(i64 4, ptr %11) #11
  %97 = load ptr, ptr %10, align 8, !tbaa !77
  %98 = load ptr, ptr %4, align 8, !tbaa !15
  %99 = call noundef i32 %97(ptr noundef %98)
  store i32 %99, ptr %11, align 4, !tbaa !19
  call void @llvm.lifetime.start.p0(i64 8, ptr %12) #11
  %100 = load ptr, ptr %4, align 8, !tbaa !15
  %101 = getelementptr inbounds nuw %struct.lua_State, ptr %100, i32 0, i32 10
  %102 = load ptr, ptr %101, align 8, !tbaa !66
  %103 = getelementptr inbounds %struct.CallInfo, ptr %102, i64 -1
  store ptr %103, ptr %12, align 8, !tbaa !68
  %104 = load i32, ptr %6, align 4, !tbaa !19
  %105 = icmp sge i32 %104, 0
  br i1 %105, label %106, label %134

106:                                              ; preds = %65
  %107 = load i32, ptr %11, align 4, !tbaa !19
  %108 = icmp sgt i32 %107, 0
  br i1 %108, label %109, label %125

109:                                              ; preds = %106
  call void @llvm.lifetime.start.p0(i64 8, ptr %13) #11
  %110 = load ptr, ptr %4, align 8, !tbaa !15
  %111 = getelementptr inbounds nuw %struct.lua_State, ptr %110, i32 0, i32 7
  %112 = load ptr, ptr %111, align 8, !tbaa !44
  %113 = load i32, ptr %11, align 4, !tbaa !19
  %114 = sext i32 %113 to i64
  %115 = sub i64 0, %114
  %116 = getelementptr inbounds %struct.lua_TValue, ptr %112, i64 %115
  store ptr %116, ptr %13, align 8, !tbaa !4
  call void @llvm.lifetime.start.p0(i64 8, ptr %14) #11
  %117 = load ptr, ptr %12, align 8, !tbaa !68
  %118 = getelementptr inbounds nuw %struct.CallInfo, ptr %117, i32 0, i32 0
  %119 = load ptr, ptr %118, align 8, !tbaa !72
  %120 = load i32, ptr %6, align 4, !tbaa !19
  %121 = sext i32 %120 to i64
  %122 = getelementptr inbounds %struct.lua_TValue, ptr %119, i64 %121
  store ptr %122, ptr %14, align 8, !tbaa !4
  %123 = load ptr, ptr %13, align 8, !tbaa !4
  %124 = load ptr, ptr %14, align 8, !tbaa !4
  call void @llvm.memcpy.p0.p0.i64(ptr align 8 %124, ptr align 8 %123, i64 16, i1 false), !tbaa.struct !38
  call void @llvm.lifetime.end.p0(i64 8, ptr %14) #11
  call void @llvm.lifetime.end.p0(i64 8, ptr %13) #11
  br label %133

125:                                              ; preds = %106
  %126 = load ptr, ptr %12, align 8, !tbaa !68
  %127 = getelementptr inbounds nuw %struct.CallInfo, ptr %126, i32 0, i32 0
  %128 = load ptr, ptr %127, align 8, !tbaa !72
  %129 = load i32, ptr %6, align 4, !tbaa !19
  %130 = sext i32 %129 to i64
  %131 = getelementptr inbounds %struct.lua_TValue, ptr %128, i64 %130
  %132 = getelementptr inbounds nuw %struct.lua_TValue, ptr %131, i32 0, i32 2
  store i32 0, ptr %132, align 4, !tbaa !9
  br label %133

133:                                              ; preds = %125, %109
  br label %134

134:                                              ; preds = %133, %65
  %135 = load ptr, ptr %12, align 8, !tbaa !68
  %136 = load ptr, ptr %4, align 8, !tbaa !15
  %137 = getelementptr inbounds nuw %struct.lua_State, ptr %136, i32 0, i32 10
  store ptr %135, ptr %137, align 8, !tbaa !66
  %138 = load ptr, ptr %12, align 8, !tbaa !68
  %139 = getelementptr inbounds nuw %struct.CallInfo, ptr %138, i32 0, i32 0
  %140 = load ptr, ptr %139, align 8, !tbaa !72
  %141 = load ptr, ptr %4, align 8, !tbaa !15
  %142 = getelementptr inbounds nuw %struct.lua_State, ptr %141, i32 0, i32 8
  store ptr %140, ptr %142, align 8, !tbaa !61
  %143 = load ptr, ptr %12, align 8, !tbaa !68
  %144 = getelementptr inbounds nuw %struct.CallInfo, ptr %143, i32 0, i32 2
  %145 = load ptr, ptr %144, align 8, !tbaa !73
  %146 = load ptr, ptr %4, align 8, !tbaa !15
  %147 = getelementptr inbounds nuw %struct.lua_State, ptr %146, i32 0, i32 7
  store ptr %145, ptr %147, align 8, !tbaa !44
  %148 = load ptr, ptr %4, align 8, !tbaa !15
  %149 = getelementptr inbounds nuw %struct.lua_State, ptr %148, i32 0, i32 17
  %150 = load i16, ptr %149, align 8, !tbaa !65
  %151 = add i16 %150, -1
  store i16 %151, ptr %149, align 8, !tbaa !65
  call void @llvm.lifetime.end.p0(i64 8, ptr %12) #11
  call void @llvm.lifetime.end.p0(i64 4, ptr %11) #11
  call void @llvm.lifetime.end.p0(i64 8, ptr %10) #11
  call void @llvm.lifetime.end.p0(i64 8, ptr %9) #11
  call void @llvm.lifetime.end.p0(i64 8, ptr %8) #11
  call void @llvm.lifetime.end.p0(i64 8, ptr %7) #11
  ret void
}