; Function Attrs: mustprogress noinline uwtable
define hidden void @_Z11luaV_callTMP9lua_Stateii(ptr noundef %0, i32 noundef %1, i32 noundef %2) local_unnamed_addr #9 {
  %4 = getelementptr inbounds nuw i8, ptr %0, i64 80
  %5 = load i16, ptr %4, align 8, !tbaa !52
  %6 = add i16 %5, 1
  store i16 %6, ptr %4, align 8, !tbaa !52
  %7 = icmp ugt i16 %6, 199
  br i1 %7, label %8, label %9

8:                                                ; preds = %3
  tail call void @_Z16luaD_checkCstackP9lua_State(ptr noundef nonnull %0)
  br label %9

9:                                                ; preds = %8, %3
  %10 = getelementptr inbounds nuw i8, ptr %0, i64 40
  %11 = load ptr, ptr %10, align 8, !tbaa !37
  %12 = getelementptr inbounds nuw i8, ptr %0, i64 8
  %13 = load ptr, ptr %12, align 8, !tbaa !36
  %14 = ptrtoint ptr %11 to i64
  %15 = ptrtoint ptr %13 to i64
  %16 = sub i64 %14, %15
  %17 = icmp slt i64 %16, 321
  br i1 %17, label %18, label %19

18:                                               ; preds = %9
  tail call void @_Z14luaD_growstackP9lua_Statei(ptr noundef nonnull %0, i32 noundef 20)
  %.pre = load ptr, ptr %12, align 8, !tbaa !36
  br label %19

19:                                               ; preds = %9, %18
  %20 = phi ptr [ %13, %9 ], [ %.pre, %18 ]
  %21 = sext i32 %1 to i64
  %22 = sub nsw i64 0, %21
  %23 = getelementptr inbounds %struct.lua_TValue, ptr %20, i64 %22
  %24 = getelementptr inbounds i8, ptr %23, i64 -16
  %25 = getelementptr inbounds nuw i8, ptr %0, i64 32
  %26 = load ptr, ptr %25, align 8, !tbaa !53
  %27 = getelementptr inbounds nuw i8, ptr %0, i64 56
  %28 = load ptr, ptr %27, align 8, !tbaa !54
  %29 = icmp eq ptr %26, %28
  br i1 %29, label %30, label %32

30:                                               ; preds = %19
  %31 = tail call noundef ptr @_Z11luaD_growCIP9lua_State(ptr noundef nonnull %0)
  br label %34

32:                                               ; preds = %19
  %33 = getelementptr inbounds nuw i8, ptr %26, i64 40
  store ptr %33, ptr %25, align 8, !tbaa !53
  br label %34

34:                                               ; preds = %32, %30
  %35 = phi ptr [ %31, %30 ], [ %33, %32 ]
  %36 = getelementptr inbounds nuw i8, ptr %35, i64 8
  store ptr %24, ptr %36, align 8, !tbaa !55
  store ptr %23, ptr %35, align 8, !tbaa !58
  %37 = getelementptr inbounds nuw i8, ptr %20, i64 320
  %38 = getelementptr inbounds nuw i8, ptr %35, i64 16
  store ptr %37, ptr %38, align 8, !tbaa !59
  %39 = getelementptr inbounds nuw i8, ptr %35, i64 24
  store ptr null, ptr %39, align 8, !tbaa !60
  %40 = getelementptr inbounds nuw i8, ptr %35, i64 36
  store i32 0, ptr %40, align 4, !tbaa !61
  %41 = icmp sgt i32 %2, -1
  %42 = zext i1 %41 to i32
  %43 = getelementptr inbounds nuw i8, ptr %35, i64 32
  store i32 %42, ptr %43, align 8, !tbaa !62
  %44 = getelementptr inbounds nuw i8, ptr %0, i64 16
  store ptr %23, ptr %44, align 8, !tbaa !48
  %45 = load ptr, ptr %24, align 8, !tbaa !9
  %46 = getelementptr inbounds nuw i8, ptr %45, i64 24
  %47 = load ptr, ptr %46, align 8, !tbaa !9
  %48 = tail call noundef i32 %47(ptr noundef nonnull %0)
  %49 = load ptr, ptr %25, align 8, !tbaa !53
  %50 = getelementptr inbounds i8, ptr %49, i64 -40
  br i1 %41, label %51, label %65

51:                                               ; preds = %34
  %52 = icmp sgt i32 %48, 0
  br i1 %52, label %53, label %61

53:                                               ; preds = %51
  %54 = load ptr, ptr %12, align 8, !tbaa !36
  %55 = zext nneg i32 %48 to i64
  %56 = sub nsw i64 0, %55
  %57 = getelementptr inbounds %struct.lua_TValue, ptr %54, i64 %56
  %58 = load ptr, ptr %50, align 8, !tbaa !58
  %59 = zext nneg i32 %2 to i64
  %60 = getelementptr inbounds nuw %struct.lua_TValue, ptr %58, i64 %59
  tail call void @llvm.memcpy.p0.p0.i64(ptr noundef nonnull align 8 dereferenceable(16) %60, ptr noundef nonnull align 8 dereferenceable(16) %57, i64 16, i1 false), !tbaa.struct !33
  br label %65

61:                                               ; preds = %51
  %62 = load ptr, ptr %50, align 8, !tbaa !58
  %63 = zext nneg i32 %2 to i64
  %64 = getelementptr inbounds nuw %struct.lua_TValue, ptr %62, i64 %63, i32 2
  store i32 0, ptr %64, align 4, !tbaa !4
  br label %65

65:                                               ; preds = %53, %61, %34
  store ptr %50, ptr %25, align 8, !tbaa !53
  %66 = load ptr, ptr %50, align 8, !tbaa !58
  store ptr %66, ptr %44, align 8, !tbaa !48
  %67 = getelementptr inbounds i8, ptr %49, i64 -24
  %68 = load ptr, ptr %67, align 8, !tbaa !59
  store ptr %68, ptr %12, align 8, !tbaa !36
  %69 = load i16, ptr %4, align 8, !tbaa !52
  %70 = add i16 %69, -1
  store i16 %70, ptr %4, align 8, !tbaa !52
  ret void
}